target datalayout = "e-m:e-p270:32:32-p271:32:32-p272:64:64-i64:64-i128:128-f80:128-n8:16:32:64-S128"
target triple = "x86_64-pc-linux-gnu"

%struct._address = type { i32, i32, ptr, ptr }
%struct._packet_info = type { ptr, ptr, i32, i32, %struct.nstime_t, %struct.nstime_t, %struct.nstime_t, i8, ptr, ptr, ptr, ptr, %struct._address, %struct._address, %struct._address, %struct._address, %struct._address, %struct._address, i32, ptr, i8, [3 x i8], %struct.anon, i32, i32, i32, i32, ptr, i8, ptr, ptr, i16, i16, i32, i32, i16, i32, i32, ptr, ptr, ptr, i8, i8, i16, i16, i16, i32, i16, i16, ptr, ptr, ptr, ptr, ptr, i32, i32 }
%struct.nstime_t = type { i64, i32 }
%struct.anon = type { i8, [3 x i8] }
%struct.lmp_conversation = type { ptr, i32, i8, ptr }

@irda_address_type = internal global i32 -1, align 4
@proto_irlmp = internal global i32 0, align 4
@hf_ttp_p = internal global i32 0, align 4
@hf_ttp_icredit = internal global i32 0, align 4
@hf_ttp_m = internal global i32 0, align 4
@hf_ttp_dcredit = internal global i32 0, align 4
@ett_ttp = internal global i32 0, align 4
@.str.146 = private unnamed_addr constant [4 x i8] c"TTP\00", align 1
@proto_ttp = internal global i32 0, align 4
@.str.268 = private unnamed_addr constant [12 x i8] c", Credit=%d\00", align 1

; Function Attrs: null_pointer_is_valid sspstrong uwtable
define internal i32 @dissect_ttp(ptr noundef %0, ptr noundef %1, ptr noundef %2, i1 noundef zeroext %3) #0 {
  %5 = alloca i32, align 4
  %6 = alloca ptr, align 8
  %7 = alloca ptr, align 8
  %8 = alloca ptr, align 8
  %9 = alloca i8, align 1
  %10 = alloca i32, align 4
  %11 = alloca i8, align 1
  %12 = alloca [128 x i8], align 16
  %13 = alloca i32, align 4
  %14 = alloca ptr, align 8
  %15 = alloca ptr, align 8
  store ptr %0, ptr %6, align 8
  store ptr %1, ptr %7, align 8
  store ptr %2, ptr %8, align 8
  %16 = zext i1 %3 to i8
  store i8 %16, ptr %9, align 1
  call void @llvm.lifetime.start.p0(i64 4, ptr %10) #7
  store i32 0, ptr %10, align 4
  call void @llvm.lifetime.start.p0(i64 1, ptr %11) #7
  call void @llvm.lifetime.start.p0(i64 128, ptr %12) #7
  %17 = load ptr, ptr %6, align 8
  %18 = call i32 @tvb_reported_length(ptr noundef %17)
  %19 = icmp eq i32 %18, 0
  br i1 %19, label %20, label %21

20:                                               ; preds = %4
  store i32 0, ptr %5, align 4
  store i32 1, ptr %13, align 4
  br label %83

21:                                               ; preds = %4
  %22 = load ptr, ptr %7, align 8
  %23 = getelementptr inbounds nuw %struct._packet_info, ptr %22, i32 0, i32 1
  %24 = load ptr, ptr %23, align 8
  call void @col_set_str(ptr noundef %24, i32 noundef 35, ptr noundef @.str.146)
  %25 = load ptr, ptr %6, align 8
  %26 = load i32, ptr %10, align 4
  %27 = call zeroext i8 @tvb_get_uint8(ptr noundef %25, i32 noundef %26)
  store i8 %27, ptr %11, align 1
  %28 = getelementptr inbounds [128 x i8], ptr %12, i64 0, i64 0
  %29 = load i8, ptr %11, align 1
  %30 = zext i8 %29 to i32
  %31 = and i32 %30, -129
  %32 = call i32 (ptr, i64, i32, i64, ptr, ...) @__snprintf_chk(ptr noundef %28, i64 noundef 128, i32 noundef 2, i64 noundef 128, ptr noundef @.str.268, i32 noundef %31)
  %33 = load ptr, ptr %7, align 8
  %34 = getelementptr inbounds nuw %struct._packet_info, ptr %33, i32 0, i32 1
  %35 = load ptr, ptr %34, align 8
  %36 = getelementptr inbounds [128 x i8], ptr %12, i64 0, i64 0
  call void @col_append_str(ptr noundef %35, i32 noundef 25, ptr noundef %36)
  %37 = load ptr, ptr %8, align 8
  %38 = icmp ne ptr %37, null
  br i1 %38, label %39, label %78

39:                                               ; preds = %21
  call void @llvm.lifetime.start.p0(i64 8, ptr %14) #7
  %40 = load ptr, ptr %8, align 8
  %41 = load i32, ptr @proto_ttp, align 4
  %42 = load ptr, ptr %6, align 8
  %43 = call ptr @proto_tree_add_item(ptr noundef %40, i32 noundef %41, ptr noundef %42, i32 noundef 0, i32 noundef -1, i32 noundef 0)
  store ptr %43, ptr %14, align 8
  call void @llvm.lifetime.start.p0(i64 8, ptr %15) #7
  %44 = load ptr, ptr %14, align 8
  %45 = load i32, ptr @ett_ttp, align 4
  %46 = call ptr @proto_item_add_subtree(ptr noundef %44, i32 noundef %45)
  store ptr %46, ptr %15, align 8
  %47 = load i8, ptr %9, align 1, !range !6, !noundef !7
  %48 = trunc i8 %47 to i1
  br i1 %48, label %49, label %62

49:                                               ; preds = %39
  %50 = load ptr, ptr %15, align 8
  %51 = load i32, ptr @hf_ttp_m, align 4
  %52 = load ptr, ptr %6, align 8
  %53 = load i32, ptr %10, align 4
  %54 = call ptr @proto_tree_add_item(ptr noundef %50, i32 noundef %51, ptr noundef %52, i32 noundef %53, i32 noundef 1, i32 noundef 0)
  %55 = load ptr, ptr %15, align 8
  %56 = load i32, ptr @hf_ttp_dcredit, align 4
  %57 = load ptr, ptr %6, align 8
  %58 = load i32, ptr %10, align 4
  %59 = call ptr @proto_tree_add_item(ptr noundef %55, i32 noundef %56, ptr noundef %57, i32 noundef %58, i32 noundef 1, i32 noundef 0)
  %60 = load i32, ptr %10, align 4
  %61 = add i32 %60, 1
  store i32 %61, ptr %10, align 4
  br label %75

62:                                               ; preds = %39
  %63 = load ptr, ptr %15, align 8
  %64 = load i32, ptr @hf_ttp_p, align 4
  %65 = load ptr, ptr %6, align 8
  %66 = load i32, ptr %10, align 4
  %67 = call ptr @proto_tree_add_item(ptr noundef %63, i32 noundef %64, ptr noundef %65, i32 noundef %66, i32 noundef 1, i32 noundef 0)
  %68 = load ptr, ptr %15, align 8
  %69 = load i32, ptr @hf_ttp_icredit, align 4
  %70 = load ptr, ptr %6, align 8
  %71 = load i32, ptr %10, align 4
  %72 = call ptr @proto_tree_add_item(ptr noundef %68, i32 noundef %69, ptr noundef %70, i32 noundef %71, i32 noundef 1, i32 noundef 0)
  %73 = load i32, ptr %10, align 4
  %74 = add i32 %73, 1
  store i32 %74, ptr %10, align 4
  br label %75

75:                                               ; preds = %62, %49
  %76 = load ptr, ptr %15, align 8
  %77 = load i32, ptr %10, align 4
  call void @proto_item_set_len(ptr noundef %76, i32 noundef %77)
  call void @llvm.lifetime.end.p0(i64 8, ptr %15) #7
  call void @llvm.lifetime.end.p0(i64 8, ptr %14) #7
  br label %81

78:                                               ; preds = %21
  %79 = load i32, ptr %10, align 4
  %80 = add i32 %79, 1
  store i32 %80, ptr %10, align 4
  br label %81

81:                                               ; preds = %78, %75
  %82 = load i32, ptr %10, align 4
  store i32 %82, ptr %5, align 4
  store i32 1, ptr %13, align 4
  br label %83

83:                                               ; preds = %81, %20
  call void @llvm.lifetime.end.p0(i64 128, ptr %12) #7
  call void @llvm.lifetime.end.p0(i64 1, ptr %11) #7
  call void @llvm.lifetime.end.p0(i64 4, ptr %10) #7
  %84 = load i32, ptr %5, align 4
  ret i32 %84
}

; Function Attrs: inlinehint nounwind null_pointer_is_valid sspstrong uwtable
define internal void @set_address(ptr noundef %0, i32 noundef %1, i32 noundef %2, ptr noundef %3) #3 {
  %5 = alloca ptr, align 8
  %6 = alloca i32, align 4
  %7 = alloca i32, align 4
  %8 = alloca ptr, align 8
  store ptr %0, ptr %5, align 8
  store i32 %1, ptr %6, align 4
  store i32 %2, ptr %7, align 4
  store ptr %3, ptr %8, align 8
  %9 = load i32, ptr %7, align 4
  %10 = icmp eq i32 %9, 0
  br i1 %10, label %11, label %14

11:                                               ; preds = %4
  br label %12

12:                                               ; preds = %11
  br label %13

13:                                               ; preds = %12
  br label %19

14:                                               ; preds = %4
  br label %15

15:                                               ; preds = %14
  br label %16

16:                                               ; preds = %15
  br label %17

17:                                               ; preds = %16
  br label %18

18:                                               ; preds = %17
  br label %19

19:                                               ; preds = %18, %13
  %20 = load i32, ptr %6, align 4
  %21 = load ptr, ptr %5, align 8
  %22 = getelementptr inbounds nuw %struct._address, ptr %21, i32 0, i32 0
  store i32 %20, ptr %22, align 8
  %23 = load i32, ptr %7, align 4
  %24 = load ptr, ptr %5, align 8
  %25 = getelementptr inbounds nuw %struct._address, ptr %24, i32 0, i32 1
  store i32 %23, ptr %25, align 4
  %26 = load ptr, ptr %8, align 8
  %27 = load ptr, ptr %5, align 8
  %28 = getelementptr inbounds nuw %struct._address, ptr %27, i32 0, i32 2
  store ptr %26, ptr %28, align 8
  %29 = load ptr, ptr %5, align 8
  %30 = getelementptr inbounds nuw %struct._address, ptr %29, i32 0, i32 3
  store ptr null, ptr %30, align 8
  ret void
}

; Function Attrs: null_pointer_is_valid sspstrong uwtable
define internal void @dissect_appl_proto(ptr noundef %0, ptr noundef %1, ptr noundef %2, i32 noundef %3, i8 noundef zeroext %4) #0 {
  %6 = alloca ptr, align 8
  %7 = alloca ptr, align 8
  %8 = alloca ptr, align 8
  %9 = alloca i32, align 4
  %10 = alloca i8, align 1
  %11 = alloca i32, align 4
  %12 = alloca i8, align 1
  %13 = alloca %struct._address, align 8
  %14 = alloca %struct._address, align 8
  %15 = alloca ptr, align 8
  %16 = alloca ptr, align 8
  %17 = alloca ptr, align 8
  %18 = alloca i32, align 4
  store ptr %0, ptr %6, align 8
  store ptr %1, ptr %7, align 8
  store ptr %2, ptr %8, align 8
  store i32 %3, ptr %9, align 4
  store i8 %4, ptr %10, align 1
  call void @llvm.lifetime.start.p0(i64 4, ptr %11) #7
  store i32 0, ptr %11, align 4
  call void @llvm.lifetime.start.p0(i64 1, ptr %12) #7
  call void @llvm.lifetime.start.p0(i64 24, ptr %13) #7
  call void @llvm.lifetime.start.p0(i64 24, ptr %14) #7
  call void @llvm.lifetime.start.p0(i64 8, ptr %15) #7
  call void @llvm.lifetime.start.p0(i64 8, ptr %16) #7
  call void @llvm.lifetime.start.p0(i64 8, ptr %17) #7
  store ptr null, ptr %17, align 8
  call void @llvm.lifetime.start.p0(i64 4, ptr %18) #7
  %19 = load i8, ptr %10, align 1
  %20 = zext i8 %19 to i32
  %21 = xor i32 %20, 1
  %22 = trunc i32 %21 to i8
  store i8 %22, ptr %12, align 1
  %23 = load i32, ptr @irda_address_type, align 4
  call void @set_address(ptr noundef %13, i32 noundef %23, i32 noundef 1, ptr noundef %12)
  %24 = load i32, ptr @irda_address_type, align 4
  call void @set_address(ptr noundef %14, i32 noundef %24, i32 noundef 1, ptr noundef %10)
  %25 = load ptr, ptr %7, align 8
  %26 = getelementptr inbounds nuw %struct._packet_info, ptr %25, i32 0, i32 3
  %27 = load i32, ptr %26, align 4
  %28 = load ptr, ptr %7, align 8
  %29 = getelementptr inbounds nuw %struct._packet_info, ptr %28, i32 0, i32 24
  %30 = load i32, ptr %29, align 4
  %31 = load ptr, ptr %7, align 8
  %32 = getelementptr inbounds nuw %struct._packet_info, ptr %31, i32 0, i32 25
  %33 = load i32, ptr %32, align 8
  %34 = call ptr @find_conversation(i32 noundef %27, ptr noundef %13, ptr noundef %14, i32 noundef 0, i32 noundef %30, i32 noundef %33, i32 noundef 0)
  store ptr %34, ptr %15, align 8
  %35 = load ptr, ptr %15, align 8
  %36 = icmp ne ptr %35, null
  br i1 %36, label %37, label %91

37:                                               ; preds = %5
  %38 = load ptr, ptr %7, align 8
  %39 = getelementptr inbounds nuw %struct._packet_info, ptr %38, i32 0, i32 3
  %40 = load i32, ptr %39, align 4
  store i32 %40, ptr %18, align 4
  %41 = load ptr, ptr %15, align 8
  %42 = load i32, ptr @proto_irlmp, align 4
  %43 = call ptr @conversation_get_proto_data(ptr noundef %41, i32 noundef %42)
  store ptr %43, ptr %17, align 8
  br label %44

44:                                               ; preds = %55, %37
  %45 = load ptr, ptr %17, align 8
  %46 = icmp ne ptr %45, null
  br i1 %46, label %47, label %53

47:                                               ; preds = %44
  %48 = load ptr, ptr %17, align 8
  %49 = getelementptr inbounds nuw %struct.lmp_conversation, ptr %48, i32 0, i32 1
  %50 = load i32, ptr %49, align 8
  %51 = load i32, ptr %18, align 4
  %52 = icmp uge i32 %50, %51
  br label %53

53:                                               ; preds = %47, %44
  %54 = phi i1 [ false, %44 ], [ %52, %47 ]
  br i1 %54, label %55, label %59

55:                                               ; preds = %53
  %56 = load ptr, ptr %17, align 8
  %57 = getelementptr inbounds nuw %struct.lmp_conversation, ptr %56, i32 0, i32 0
  %58 = load ptr, ptr %57, align 8
  store ptr %58, ptr %17, align 8
  br label %44, !llvm.loop !18

59:                                               ; preds = %53
  %60 = load ptr, ptr %17, align 8
  %61 = icmp ne ptr %60, null
  br i1 %61, label %62, label %90

62:                                               ; preds = %59
  %63 = load ptr, ptr %17, align 8
  %64 = getelementptr inbounds nuw %struct.lmp_conversation, ptr %63, i32 0, i32 0
  %65 = load ptr, ptr %64, align 8
  store ptr %65, ptr %16, align 8
  br label %66

66:                                               ; preds = %85, %62
  %67 = load ptr, ptr %16, align 8
  %68 = icmp ne ptr %67, null
  br i1 %68, label %69, label %89

69:                                               ; preds = %66
  %70 = load ptr, ptr %16, align 8
  %71 = getelementptr inbounds nuw %struct.lmp_conversation, ptr %70, i32 0, i32 1
  %72 = load i32, ptr %71, align 8
  %73 = load i32, ptr %18, align 4
  %74 = icmp ult i32 %72, %73
  br i1 %74, label %75, label %85

75:                                               ; preds = %69
  %76 = load ptr, ptr %16, align 8
  %77 = getelementptr inbounds nuw %struct.lmp_conversation, ptr %76, i32 0, i32 1
  %78 = load i32, ptr %77, align 8
  %79 = load ptr, ptr %17, align 8
  %80 = getelementptr inbounds nuw %struct.lmp_conversation, ptr %79, i32 0, i32 1
  %81 = load i32, ptr %80, align 8
  %82 = icmp ugt i32 %78, %81
  br i1 %82, label %83, label %85

83:                                               ; preds = %75
  %84 = load ptr, ptr %16, align 8
  store ptr %84, ptr %17, align 8
  br label %85

85:                                               ; preds = %83, %75, %69
  %86 = load ptr, ptr %16, align 8
  %87 = getelementptr inbounds nuw %struct.lmp_conversation, ptr %86, i32 0, i32 0
  %88 = load ptr, ptr %87, align 8
  store ptr %88, ptr %16, align 8
  br label %66, !llvm.loop !19

89:                                               ; preds = %66
  br label %90

90:                                               ; preds = %89, %59
  br label %91

91:                                               ; preds = %90, %5
  %92 = load ptr, ptr %17, align 8
  %93 = icmp ne ptr %92, null
  br i1 %93, label %94, label %125

94:                                               ; preds = %91
  %95 = load ptr, ptr %17, align 8
  %96 = getelementptr inbounds nuw %struct.lmp_conversation, ptr %95, i32 0, i32 2
  %97 = load i8, ptr %96, align 4, !range !6, !noundef !7
  %98 = trunc i8 %97 to i1
  br i1 %98, label %99, label %114

99:                                               ; preds = %94
  %100 = load i32, ptr %9, align 4
  %101 = icmp ne i32 %100, 1
  br i1 %101, label %102, label %114

102:                                              ; preds = %99
  %103 = load ptr, ptr %6, align 8
  %104 = load ptr, ptr %7, align 8
  %105 = load ptr, ptr %8, align 8
  %106 = load i32, ptr %9, align 4
  %107 = icmp eq i32 %106, 2
  %108 = call i32 @dissect_ttp(ptr noundef %103, ptr noundef %104, ptr noundef %105, i1 noundef zeroext %107)
  %109 = load i32, ptr %11, align 4
  %110 = add i32 %109, %108
  store i32 %110, ptr %11, align 4
  %111 = load ptr, ptr %6, align 8
  %112 = load i32, ptr %11, align 4
  %113 = call ptr @tvb_new_subset_remaining(ptr noundef %111, i32 noundef %112)
  store ptr %113, ptr %6, align 8
  br label %114

114:                                              ; preds = %102, %99, %94
  %115 = load ptr, ptr %17, align 8
  %116 = getelementptr inbounds nuw %struct.lmp_conversation, ptr %115, i32 0, i32 3
  %117 = load ptr, ptr %116, align 8
  %118 = load ptr, ptr %6, align 8
  %119 = load ptr, ptr %7, align 8
  %120 = load ptr, ptr %8, align 8
  %121 = load i32, ptr %9, align 4
  %122 = zext i32 %121 to i64
  %123 = inttoptr i64 %122 to ptr
  %124 = call i32 @call_dissector_with_data(ptr noundef %117, ptr noundef %118, ptr noundef %119, ptr noundef %120, ptr noundef %123)
  br label %130

125:                                              ; preds = %91
  %126 = load ptr, ptr %6, align 8
  %127 = load ptr, ptr %7, align 8
  %128 = load ptr, ptr %8, align 8
  %129 = call i32 @call_data_dissector(ptr noundef %126, ptr noundef %127, ptr noundef %128)
  br label %130

130:                                              ; preds = %125, %114
  call void @llvm.lifetime.end.p0(i64 4, ptr %18) #7
  call void @llvm.lifetime.end.p0(i64 8, ptr %17) #7
  call void @llvm.lifetime.end.p0(i64 8, ptr %16) #7
  call void @llvm.lifetime.end.p0(i64 8, ptr %15) #7
  call void @llvm.lifetime.end.p0(i64 24, ptr %14) #7
  call void @llvm.lifetime.end.p0(i64 24, ptr %13) #7
  call void @llvm.lifetime.end.p0(i64 1, ptr %12) #7
  call void @llvm.lifetime.end.p0(i64 4, ptr %11) #7
  ret void
}