; Function Attrs: null_pointer_is_valid sspstrong uwtable
define internal fastcc void @dissect_appl_proto(ptr noundef %0, ptr noundef %1, ptr noundef %2, i32 noundef range(i32 0, 3) %3, i8 noundef zeroext %4) unnamed_addr #0 {
  %6 = alloca [128 x i8], align 16
  %7 = alloca i8, align 1
  %8 = alloca i8, align 1
  %9 = alloca %struct._address, align 8
  %10 = alloca %struct._address, align 8
  store i8 %4, ptr %7, align 1
  call void @llvm.lifetime.start.p0(i64 1, ptr nonnull %8) #7
  call void @llvm.lifetime.start.p0(i64 24, ptr nonnull %9) #7
  call void @llvm.lifetime.start.p0(i64 24, ptr nonnull %10) #7
  %11 = xor i8 %4, 1
  store i8 %11, ptr %8, align 1
  %12 = load i32, ptr @irda_address_type, align 4
  store i32 %12, ptr %9, align 8
  %13 = getelementptr inbounds nuw i8, ptr %9, i64 4
  store i32 1, ptr %13, align 4
  %14 = getelementptr inbounds nuw i8, ptr %9, i64 8
  store ptr %8, ptr %14, align 8
  %15 = getelementptr inbounds nuw i8, ptr %9, i64 16
  store ptr null, ptr %15, align 8
  store i32 %12, ptr %10, align 8
  %16 = getelementptr inbounds nuw i8, ptr %10, i64 4
  store i32 1, ptr %16, align 4
  %17 = getelementptr inbounds nuw i8, ptr %10, i64 8
  store ptr %7, ptr %17, align 8
  %18 = getelementptr inbounds nuw i8, ptr %10, i64 16
  store ptr null, ptr %18, align 8
  %19 = getelementptr inbounds nuw i8, ptr %1, i64 20
  %20 = load i32, ptr %19, align 4
  %21 = getelementptr inbounds nuw i8, ptr %1, i64 284
  %22 = load i32, ptr %21, align 4
  %23 = getelementptr inbounds nuw i8, ptr %1, i64 288
  %24 = load i32, ptr %23, align 8
  %25 = call ptr @find_conversation(i32 noundef %20, ptr noundef nonnull %9, ptr noundef nonnull %10, i32 noundef 0, i32 noundef %22, i32 noundef %24, i32 noundef 0)
  %.not = icmp eq ptr %25, null
  br i1 %.not, label %.critedge46.thread, label %26

26:                                               ; preds = %5
  %27 = load i32, ptr %19, align 4
  %28 = load i32, ptr @proto_irlmp, align 4
  %29 = call ptr @conversation_get_proto_data(ptr noundef nonnull %25, i32 noundef %28)
  %.not4250 = icmp eq ptr %29, null
  br i1 %.not4250, label %.critedge46.thread, label %.lr.ph

.lr.ph:                                           ; preds = %26, %32
  %.151 = phi ptr [ %.03852, %32 ], [ %29, %26 ]
  %30 = getelementptr inbounds nuw i8, ptr %.151, i64 8
  %31 = load i32, ptr %30, align 8
  %.not43 = icmp ult i32 %31, %27
  %.03852 = load ptr, ptr %.151, align 8
  %.not4453 = icmp eq ptr %.03852, null
  br i1 %.not43, label %.critedge.preheader, label %32

.critedge.preheader:                              ; preds = %.lr.ph
  br i1 %.not4453, label %.critedge46.thread58, label %.lr.ph56

32:                                               ; preds = %.lr.ph
  br i1 %.not4453, label %.critedge46.thread, label %.lr.ph, !llvm.loop !16

.lr.ph56:                                         ; preds = %.critedge.preheader, %.critedge
  %.03855 = phi ptr [ %.038, %.critedge ], [ %.03852, %.critedge.preheader ]
  %.254 = phi ptr [ %.3, %.critedge ], [ %.151, %.critedge.preheader ]
  %33 = getelementptr inbounds nuw i8, ptr %.03855, i64 8
  %34 = load i32, ptr %33, align 8
  %35 = icmp ult i32 %34, %27
  br i1 %35, label %36, label %.critedge

36:                                               ; preds = %.lr.ph56
  %37 = getelementptr inbounds nuw i8, ptr %.254, i64 8
  %38 = load i32, ptr %37, align 8
  %39 = icmp ugt i32 %34, %38
  %spec.select = select i1 %39, ptr %.03855, ptr %.254
  br label %.critedge

.critedge:                                        ; preds = %36, %.lr.ph56
  %.3 = phi ptr [ %.254, %.lr.ph56 ], [ %spec.select, %36 ]
  %.038 = load ptr, ptr %.03855, align 8
  %.not44 = icmp eq ptr %.038, null
  br i1 %.not44, label %.critedge46, label %.lr.ph56, !llvm.loop !17

.critedge46:                                      ; preds = %.critedge
  %.not45 = icmp eq ptr %.3, null
  br i1 %.not45, label %.critedge46.thread, label %.critedge46.thread58

.critedge46.thread58:                             ; preds = %.critedge.preheader, %.critedge46
  %.2.lcssa61 = phi ptr [ %.3, %.critedge46 ], [ %.151, %.critedge.preheader ]
  %40 = getelementptr inbounds nuw i8, ptr %.2.lcssa61, i64 12
  %41 = load i8, ptr %40, align 4, !range !18, !noundef !19
  %42 = trunc nuw i8 %41 to i1
  %43 = icmp ne i32 %3, 1
  %or.cond = and i1 %43, %42
  br i1 %or.cond, label %44, label %66

44:                                               ; preds = %.critedge46.thread58
  %45 = icmp eq i32 %3, 2
  call void @llvm.lifetime.start.p0(i64 128, ptr nonnull %6) #7
  %46 = call i32 @tvb_reported_length(ptr noundef %0)
  %47 = icmp eq i32 %46, 0
  br i1 %47, label %dissect_ttp.exit, label %48

48:                                               ; preds = %44
  %49 = getelementptr inbounds nuw i8, ptr %1, i64 8
  %50 = load ptr, ptr %49, align 8
  call void @col_set_str(ptr noundef %50, i32 noundef 35, ptr noundef nonnull @.str.146)
  %51 = call zeroext i8 @tvb_get_uint8(ptr noundef %0, i32 noundef 0)
  %52 = and i8 %51, 127
  %53 = zext nneg i8 %52 to i32
  %54 = call i32 (ptr, i64, i32, i64, ptr, ...) @__snprintf_chk(ptr noundef nonnull %6, i64 noundef 128, i32 noundef 2, i64 noundef 128, ptr noundef nonnull @.str.268, i32 noundef %53)
  %55 = load ptr, ptr %49, align 8
  call void @col_append_str(ptr noundef %55, i32 noundef 25, ptr noundef nonnull %6)
  %.not.i = icmp eq ptr %2, null
  br i1 %.not.i, label %dissect_ttp.exit, label %56

56:                                               ; preds = %48
  %57 = load i32, ptr @proto_ttp, align 4
  %58 = call ptr @proto_tree_add_item(ptr noundef nonnull %2, i32 noundef %57, ptr noundef %0, i32 noundef 0, i32 noundef -1, i32 noundef 0)
  %59 = load i32, ptr @ett_ttp, align 4
  %60 = call ptr @proto_item_add_subtree(ptr noundef %58, i32 noundef %59)
  %hf_ttp_m.val.i = load i32, ptr @hf_ttp_m, align 4
  %hf_ttp_p.val.i = load i32, ptr @hf_ttp_p, align 4
  %61 = select i1 %45, i32 %hf_ttp_m.val.i, i32 %hf_ttp_p.val.i
  %62 = call ptr @proto_tree_add_item(ptr noundef %60, i32 noundef %61, ptr noundef %0, i32 noundef 0, i32 noundef 1, i32 noundef 0)
  %hf_ttp_dcredit.val.i = load i32, ptr @hf_ttp_dcredit, align 4
  %hf_ttp_icredit.val.i = load i32, ptr @hf_ttp_icredit, align 4
  %63 = select i1 %45, i32 %hf_ttp_dcredit.val.i, i32 %hf_ttp_icredit.val.i
  %64 = call ptr @proto_tree_add_item(ptr noundef %60, i32 noundef %63, ptr noundef %0, i32 noundef 0, i32 noundef 1, i32 noundef 0)
  call void @proto_item_set_len(ptr noundef %60, i32 noundef 1)
  br label %dissect_ttp.exit

dissect_ttp.exit:                                 ; preds = %44, %48, %56
  %.0.i = phi i32 [ 0, %44 ], [ 1, %48 ], [ 1, %56 ]
  call void @llvm.lifetime.end.p0(i64 128, ptr nonnull %6) #7
  %65 = call ptr @tvb_new_subset_remaining(ptr noundef %0, i32 noundef %.0.i)
  br label %66

66:                                               ; preds = %dissect_ttp.exit, %.critedge46.thread58
  %.0 = phi ptr [ %65, %dissect_ttp.exit ], [ %0, %.critedge46.thread58 ]
  %67 = getelementptr inbounds nuw i8, ptr %.2.lcssa61, i64 16
  %68 = load ptr, ptr %67, align 8
  %69 = zext nneg i32 %3 to i64
  %70 = inttoptr i64 %69 to ptr
  %71 = call i32 @call_dissector_with_data(ptr noundef %68, ptr noundef %.0, ptr noundef %1, ptr noundef %2, ptr noundef %70)
  br label %73

.critedge46.thread:                               ; preds = %32, %26, %5, %.critedge46
  %72 = call i32 @call_data_dissector(ptr noundef %0, ptr noundef %1, ptr noundef %2)
  br label %73

73:                                               ; preds = %.critedge46.thread, %66
  call void @llvm.lifetime.end.p0(i64 24, ptr nonnull %10) #7
  call void @llvm.lifetime.end.p0(i64 24, ptr nonnull %9) #7
  call void @llvm.lifetime.end.p0(i64 1, ptr nonnull %8) #7
  ret void
}